(dp1
S'\\sqrt'
p2
I21
sS'!'
I13
sS'\\infty'
p3
I30
sS')'
I20
sS'('
I19
sS'+'
I8
sS'-'
I11
sS'\\theta'
p4
I15
sS'1'
I10
sS'0'
I23
sS'3'
I7
sS'2'
I14
sS'4'
I28
sS'7'
I27
sS'\\tan'
p5
I22
sS'='
I2
sS'\\sin'
p6
I26
sS'A'
I9
sS'\\pm'
p7
I29
sS'F'
I24
sS'a'
I12
sS'c'
I5
sS'b'
I3
sS'e'
I25
sS'\\sum'
p8
I16
sS'k'
I17
sS'n'
I1
sS'\\cos'
p9
I18
sS'y'
I4
sS'x'
I0
sS'z'
I6
s.